target datalayout = "e-m:e-p270:32:32-p271:32:32-p272:64:64-i64:64-i128:128-f80:128-n8:16:32:64-S128"
target triple = "x86_64-pc-linux-gnu"

%struct.TT_SBitDecoderRec_ = type { ptr, ptr, ptr, ptr, i8, i8, i8, i64, i64, i64, i64, ptr, ptr }
%struct.TT_SBit_MetricsRec_ = type { i16, i16, i16, i16, i16, i16, i16, i16 }

; Function Attrs: nounwind uwtable
define internal i32 @tt_sbit_decoder_load_bitmap(ptr noundef %0, i32 noundef %1, i64 noundef %2, i64 noundef %3, i32 noundef %4, i32 noundef %5, i32 noundef %6, i8 noundef zeroext %7) #0 {
  %9 = alloca ptr, align 8
  %10 = alloca i32, align 4
  %11 = alloca i64, align 8
  %12 = alloca i64, align 8
  %13 = alloca i32, align 4
  %14 = alloca i32, align 4
  %15 = alloca i32, align 4
  %16 = alloca i8, align 1
  %17 = alloca i32, align 4
  %18 = alloca ptr, align 8
  %19 = alloca ptr, align 8
  %20 = alloca ptr, align 8
  %21 = alloca ptr, align 8
  %22 = alloca ptr, align 8
  %23 = alloca i32, align 4
  %24 = alloca i32, align 4
  %25 = alloca i32, align 4
  %26 = alloca i32, align 4
  store ptr %0, ptr %9, align 8
  store i32 %1, ptr %10, align 4
  store i64 %2, ptr %11, align 8
  store i64 %3, ptr %12, align 8
  store i32 %4, ptr %13, align 4
  store i32 %5, ptr %14, align 4
  store i32 %6, ptr %15, align 4
  store i8 %7, ptr %16, align 1
  %27 = load ptr, ptr %9, align 8
  %28 = getelementptr inbounds %struct.TT_SBitDecoderRec_, ptr %27, i32 0, i32 1
  %29 = load ptr, ptr %28, align 8
  store ptr %29, ptr %18, align 8
  %30 = load i64, ptr %12, align 8
  %31 = icmp ne i64 %30, 0
  br i1 %31, label %32, label %40

32:                                               ; preds = %8
  %33 = load i64, ptr %11, align 8
  %34 = load i64, ptr %12, align 8
  %35 = add i64 %33, %34
  %36 = load ptr, ptr %9, align 8
  %37 = getelementptr inbounds %struct.TT_SBitDecoderRec_, ptr %36, i32 0, i32 8
  %38 = load i64, ptr %37, align 8
  %39 = icmp ugt i64 %35, %38
  br i1 %39, label %40, label %41

40:                                               ; preds = %32, %8
  store i32 6, ptr %17, align 4
  br label %157

41:                                               ; preds = %32
  %42 = load ptr, ptr %18, align 8
  %43 = load ptr, ptr %9, align 8
  %44 = getelementptr inbounds %struct.TT_SBitDecoderRec_, ptr %43, i32 0, i32 7
  %45 = load i64, ptr %44, align 8
  %46 = load i64, ptr %11, align 8
  %47 = add i64 %45, %46
  %48 = call i32 @FT_Stream_Seek(ptr noundef %42, i64 noundef %47)
  store i32 %48, ptr %17, align 4
  %49 = icmp ne i32 %48, 0
  br i1 %49, label %55, label %50

50:                                               ; preds = %41
  %51 = load ptr, ptr %18, align 8
  %52 = load i64, ptr %12, align 8
  %53 = call i32 @FT_Stream_ExtractFrame(ptr noundef %51, i64 noundef %52, ptr noundef %21)
  store i32 %53, ptr %17, align 4
  %54 = icmp ne i32 %53, 0
  br i1 %54, label %55, label %56

55:                                               ; preds = %50, %41
  br label %157

56:                                               ; preds = %50
  %57 = load ptr, ptr %21, align 8
  store ptr %57, ptr %19, align 8
  %58 = load ptr, ptr %19, align 8
  %59 = load i64, ptr %12, align 8
  %60 = getelementptr inbounds i8, ptr %58, i64 %59
  store ptr %60, ptr %20, align 8
  %61 = load i32, ptr %10, align 4
  switch i32 %61, label %70 [
    i32 1, label %62
    i32 2, label %62
    i32 8, label %62
    i32 17, label %62
    i32 6, label %66
    i32 7, label %66
    i32 9, label %66
    i32 18, label %66
  ]

62:                                               ; preds = %56, %56, %56, %56
  %63 = load ptr, ptr %9, align 8
  %64 = load ptr, ptr %20, align 8
  %65 = call i32 @tt_sbit_decoder_load_metrics(ptr noundef %63, ptr noundef %19, ptr noundef %64, i8 noundef zeroext 0)
  store i32 %65, ptr %17, align 4
  br label %71

66:                                               ; preds = %56, %56, %56, %56
  %67 = load ptr, ptr %9, align 8
  %68 = load ptr, ptr %20, align 8
  %69 = call i32 @tt_sbit_decoder_load_metrics(ptr noundef %67, ptr noundef %19, ptr noundef %68, i8 noundef zeroext 1)
  store i32 %69, ptr %17, align 4
  br label %71

70:                                               ; preds = %56
  store i32 0, ptr %17, align 4
  br label %71

71:                                               ; preds = %70, %66, %62
  %72 = load i32, ptr %17, align 4
  %73 = icmp ne i32 %72, 0
  br i1 %73, label %74, label %75

74:                                               ; preds = %71
  br label %155

75:                                               ; preds = %71
  %76 = load i32, ptr %10, align 4
  switch i32 %76, label %128 [
    i32 1, label %77
    i32 6, label %77
    i32 2, label %78
    i32 7, label %78
    i32 5, label %116
    i32 8, label %117
    i32 9, label %126
    i32 17, label %127
    i32 18, label %127
    i32 19, label %127
  ]

77:                                               ; preds = %75, %75
  store ptr @tt_sbit_decoder_load_byte_aligned, ptr %22, align 8
  br label %129

78:                                               ; preds = %75, %75
  %79 = load ptr, ptr %9, align 8
  %80 = getelementptr inbounds %struct.TT_SBitDecoderRec_, ptr %79, i32 0, i32 3
  %81 = load ptr, ptr %80, align 8
  %82 = getelementptr inbounds %struct.TT_SBit_MetricsRec_, ptr %81, i32 0, i32 1
  %83 = load i16, ptr %82, align 2
  %84 = zext i16 %83 to i32
  store i32 %84, ptr %23, align 4
  %85 = load ptr, ptr %9, align 8
  %86 = getelementptr inbounds %struct.TT_SBitDecoderRec_, ptr %85, i32 0, i32 3
  %87 = load ptr, ptr %86, align 8
  %88 = getelementptr inbounds %struct.TT_SBit_MetricsRec_, ptr %87, i32 0, i32 0
  %89 = load i16, ptr %88, align 2
  %90 = zext i16 %89 to i32
  store i32 %90, ptr %24, align 4
  %91 = load i32, ptr %23, align 4
  %92 = load i32, ptr %24, align 4
  %93 = mul i32 %91, %92
  %94 = add i32 %93, 7
  %95 = lshr i32 %94, 3
  store i32 %95, ptr %25, align 4
  %96 = load i32, ptr %24, align 4
  %97 = load i32, ptr %23, align 4
  %98 = add i32 %97, 7
  %99 = lshr i32 %98, 3
  %100 = mul i32 %96, %99
  store i32 %100, ptr %26, align 4
  %101 = load i32, ptr %25, align 4
  %102 = load i32, ptr %26, align 4
  %103 = icmp ult i32 %101, %102
  br i1 %103, label %104, label %114

104:                                              ; preds = %78
  %105 = load i32, ptr %26, align 4
  %106 = load ptr, ptr %20, align 8
  %107 = load ptr, ptr %19, align 8
  %108 = ptrtoint ptr %106 to i64
  %109 = ptrtoint ptr %107 to i64
  %110 = sub i64 %108, %109
  %111 = trunc i64 %110 to i32
  %112 = icmp eq i32 %105, %111
  br i1 %112, label %113, label %114

113:                                              ; preds = %104
  store ptr @tt_sbit_decoder_load_byte_aligned, ptr %22, align 8
  br label %115

114:                                              ; preds = %104, %78
  store ptr @tt_sbit_decoder_load_bit_aligned, ptr %22, align 8
  br label %115

115:                                              ; preds = %114, %113
  br label %129

116:                                              ; preds = %75
  store ptr @tt_sbit_decoder_load_bit_aligned, ptr %22, align 8
  br label %129

117:                                              ; preds = %75
  %118 = load ptr, ptr %19, align 8
  %119 = getelementptr inbounds i8, ptr %118, i64 1
  %120 = load ptr, ptr %20, align 8
  %121 = icmp ugt ptr %119, %120
  br i1 %121, label %122, label %123

122:                                              ; preds = %117
  br label %155

123:                                              ; preds = %117
  %124 = load ptr, ptr %19, align 8
  %125 = getelementptr inbounds i8, ptr %124, i64 1
  store ptr %125, ptr %19, align 8
  br label %126

126:                                              ; preds = %123, %75
  store ptr @tt_sbit_decoder_load_compound, ptr %22, align 8
  br label %129

127:                                              ; preds = %75, %75, %75
  store ptr @tt_sbit_decoder_load_png, ptr %22, align 8
  br label %129

128:                                              ; preds = %75
  store i32 8, ptr %17, align 4
  br label %155

129:                                              ; preds = %127, %126, %116, %115, %77
  %130 = load ptr, ptr %9, align 8
  %131 = getelementptr inbounds %struct.TT_SBitDecoderRec_, ptr %130, i32 0, i32 5
  %132 = load i8, ptr %131, align 1
  %133 = icmp ne i8 %132, 0
  br i1 %133, label %142, label %134

134:                                              ; preds = %129
  %135 = load ptr, ptr %9, align 8
  %136 = load i8, ptr %16, align 1
  %137 = call i32 @tt_sbit_decoder_alloc_bitmap(ptr noundef %135, i8 noundef zeroext %136)
  store i32 %137, ptr %17, align 4
  %138 = load i32, ptr %17, align 4
  %139 = icmp ne i32 %138, 0
  br i1 %139, label %140, label %141

140:                                              ; preds = %134
  br label %155

141:                                              ; preds = %134
  br label %142

142:                                              ; preds = %141, %129
  %143 = load i8, ptr %16, align 1
  %144 = icmp ne i8 %143, 0
  br i1 %144, label %145, label %146

145:                                              ; preds = %142
  br label %155

146:                                              ; preds = %142
  %147 = load ptr, ptr %22, align 8
  %148 = load ptr, ptr %9, align 8
  %149 = load ptr, ptr %19, align 8
  %150 = load ptr, ptr %20, align 8
  %151 = load i32, ptr %13, align 4
  %152 = load i32, ptr %14, align 4
  %153 = load i32, ptr %15, align 4
  %154 = call i32 %147(ptr noundef %148, ptr noundef %149, ptr noundef %150, i32 noundef %151, i32 noundef %152, i32 noundef %153)
  store i32 %154, ptr %17, align 4
  br label %155

155:                                              ; preds = %146, %145, %140, %128, %122, %74
  %156 = load ptr, ptr %18, align 8
  call void @FT_Stream_ReleaseFrame(ptr noundef %156, ptr noundef %21)
  br label %157

157:                                              ; preds = %155, %55, %40
  %158 = load i32, ptr %17, align 4
  ret i32 %158
}