; Function Attrs: nounwind uwtable
define internal fastcc i32 @tt_sbit_decoder_load_bitmap(ptr noundef %0, i32 noundef %1, i64 noundef %2, i64 noundef %3, i32 noundef %4, i32 noundef %5, i32 noundef %6, i8 noundef zeroext %7) unnamed_addr #0 {
  %9 = alloca ptr, align 8
  %10 = alloca ptr, align 8
  %11 = getelementptr inbounds i8, ptr %0, i64 8
  %12 = load ptr, ptr %11, align 8
  %.not = icmp eq i64 %3, 0
  br i1 %.not, label %99, label %13

13:                                               ; preds = %8
  %14 = add i64 %3, %2
  %15 = getelementptr inbounds i8, ptr %0, i64 48
  %16 = load i64, ptr %15, align 8
  %17 = icmp ugt i64 %14, %16
  br i1 %17, label %99, label %18

18:                                               ; preds = %13
  %19 = getelementptr inbounds i8, ptr %0, i64 40
  %20 = load i64, ptr %19, align 8
  %21 = add i64 %20, %2
  %22 = tail call i32 @FT_Stream_Seek(ptr noundef %12, i64 noundef %21) #26
  %.not49 = icmp eq i32 %22, 0
  br i1 %.not49, label %23, label %99

23:                                               ; preds = %18
  %24 = call i32 @FT_Stream_ExtractFrame(ptr noundef %12, i64 noundef %3, ptr noundef nonnull %10) #26
  %.not50 = icmp eq i32 %24, 0
  br i1 %.not50, label %25, label %99

25:                                               ; preds = %23
  %26 = load ptr, ptr %10, align 8
  store ptr %26, ptr %9, align 8
  %27 = getelementptr inbounds i8, ptr %26, i64 %3
  switch i32 %1, label %tt_sbit_decoder_load_metrics.exit.thread55 [
    i32 1, label %28
    i32 2, label %28
    i32 8, label %28
    i32 17, label %28
    i32 6, label %tt_sbit_decoder_load_metrics.exit
    i32 7, label %tt_sbit_decoder_load_metrics.exit
    i32 9, label %tt_sbit_decoder_load_metrics.exit
    i32 18, label %tt_sbit_decoder_load_metrics.exit
    i32 5, label %80
    i32 19, label %87
  ]

28:                                               ; preds = %25, %25, %25, %25
  %29 = icmp slt i64 %3, 5
  br i1 %29, label %tt_sbit_decoder_load_metrics.exit.thread55, label %30

30:                                               ; preds = %28
  %31 = getelementptr inbounds i8, ptr %26, i64 5
  %32 = getelementptr inbounds i8, ptr %0, i64 24
  %33 = load ptr, ptr %32, align 8
  %34 = load i8, ptr %26, align 1
  %35 = zext i8 %34 to i16
  store i16 %35, ptr %33, align 2
  %36 = getelementptr inbounds i8, ptr %26, i64 1
  %37 = load i8, ptr %36, align 1
  %38 = zext i8 %37 to i16
  %39 = getelementptr inbounds i8, ptr %33, i64 2
  store i16 %38, ptr %39, align 2
  %40 = getelementptr inbounds i8, ptr %26, i64 2
  %41 = load i8, ptr %40, align 1
  %42 = sext i8 %41 to i16
  %43 = getelementptr inbounds i8, ptr %33, i64 4
  store i16 %42, ptr %43, align 2
  %44 = getelementptr inbounds i8, ptr %26, i64 3
  %45 = load i8, ptr %44, align 1
  %46 = sext i8 %45 to i16
  %47 = getelementptr inbounds i8, ptr %33, i64 6
  store i16 %46, ptr %47, align 2
  %48 = getelementptr inbounds i8, ptr %26, i64 4
  %49 = load i8, ptr %48, align 1
  %50 = zext i8 %49 to i16
  %51 = getelementptr inbounds i8, ptr %33, i64 8
  store i16 %50, ptr %51, align 2
  %52 = getelementptr inbounds i8, ptr %33, i64 10
  store i16 0, ptr %52, align 2
  %53 = getelementptr inbounds i8, ptr %33, i64 12
  store i16 0, ptr %53, align 2
  %54 = getelementptr inbounds i8, ptr %33, i64 14
  store i16 0, ptr %54, align 2
  %55 = getelementptr inbounds i8, ptr %0, i64 32
  store i8 1, ptr %55, align 8
  store ptr %31, ptr %9, align 8
  br label %tt_sbit_decoder_load_metrics.exit.thread

tt_sbit_decoder_load_metrics.exit:                ; preds = %25, %25, %25, %25
  %56 = call fastcc i32 @tt_sbit_decoder_load_metrics(ptr noundef nonnull %0, ptr noundef nonnull %9, ptr noundef nonnull %27, i8 noundef zeroext 1)
  %.not51 = icmp eq i32 %56, 0
  br i1 %.not51, label %tt_sbit_decoder_load_metrics.exit.thread, label %tt_sbit_decoder_load_metrics.exit.thread55

tt_sbit_decoder_load_metrics.exit.thread:         ; preds = %30, %tt_sbit_decoder_load_metrics.exit
  switch i32 %1, label %tt_sbit_decoder_load_metrics.exit.thread55 [
    i32 1, label %88
    i32 6, label %88
    i32 2, label %57
    i32 7, label %57
    i32 5, label %80
    i32 8, label %81
    i32 9, label %86
    i32 17, label %87
    i32 18, label %87
  ]

57:                                               ; preds = %tt_sbit_decoder_load_metrics.exit.thread, %tt_sbit_decoder_load_metrics.exit.thread
  %58 = getelementptr inbounds i8, ptr %0, i64 24
  %59 = load ptr, ptr %58, align 8
  %60 = getelementptr inbounds i8, ptr %59, i64 2
  %61 = load i16, ptr %60, align 2
  %62 = zext i16 %61 to i32
  %63 = load i16, ptr %59, align 2
  %64 = zext i16 %63 to i32
  %65 = mul nuw i32 %64, %62
  %66 = add nuw i32 %65, 7
  %67 = lshr i32 %66, 3
  %68 = add nuw nsw i32 %62, 7
  %69 = lshr i32 %68, 3
  %70 = mul nuw nsw i32 %69, %64
  %71 = icmp ult i32 %67, %70
  br i1 %71, label %72, label %79

72:                                               ; preds = %57
  %73 = load ptr, ptr %9, align 8
  %74 = ptrtoint ptr %27 to i64
  %75 = ptrtoint ptr %73 to i64
  %76 = sub i64 %74, %75
  %77 = trunc i64 %76 to i32
  %78 = icmp eq i32 %70, %77
  br i1 %78, label %88, label %79

79:                                               ; preds = %72, %57
  br label %88

80:                                               ; preds = %25, %tt_sbit_decoder_load_metrics.exit.thread
  br label %88

81:                                               ; preds = %tt_sbit_decoder_load_metrics.exit.thread
  %82 = load ptr, ptr %9, align 8
  %83 = getelementptr inbounds i8, ptr %82, i64 1
  %84 = icmp ugt ptr %83, %27
  br i1 %84, label %tt_sbit_decoder_load_metrics.exit.thread55, label %85

85:                                               ; preds = %81
  store ptr %83, ptr %9, align 8
  br label %86

86:                                               ; preds = %85, %tt_sbit_decoder_load_metrics.exit.thread
  br label %88

87:                                               ; preds = %25, %tt_sbit_decoder_load_metrics.exit.thread, %tt_sbit_decoder_load_metrics.exit.thread
  br label %88

88:                                               ; preds = %72, %tt_sbit_decoder_load_metrics.exit.thread, %tt_sbit_decoder_load_metrics.exit.thread, %79, %87, %86, %80
  %.043 = phi ptr [ @tt_sbit_decoder_load_png, %87 ], [ @tt_sbit_decoder_load_compound, %86 ], [ @tt_sbit_decoder_load_bit_aligned, %80 ], [ @tt_sbit_decoder_load_bit_aligned, %79 ], [ @tt_sbit_decoder_load_byte_aligned, %tt_sbit_decoder_load_metrics.exit.thread ], [ @tt_sbit_decoder_load_byte_aligned, %tt_sbit_decoder_load_metrics.exit.thread ], [ @tt_sbit_decoder_load_byte_aligned, %72 ]
  %89 = getelementptr inbounds i8, ptr %0, i64 33
  %90 = load i8, ptr %89, align 1
  %.not52 = icmp eq i8 %90, 0
  br i1 %.not52, label %91, label %95

91:                                               ; preds = %88
  %92 = call fastcc i32 @tt_sbit_decoder_alloc_bitmap(ptr noundef nonnull %0, i8 noundef zeroext %7)
  %93 = icmp ne i32 %92, 0
  %94 = icmp ne i8 %7, 0
  %or.cond = or i1 %94, %93
  br i1 %or.cond, label %tt_sbit_decoder_load_metrics.exit.thread55, label %96

95:                                               ; preds = %88
  %.old1.not = icmp eq i8 %7, 0
  br i1 %.old1.not, label %96, label %tt_sbit_decoder_load_metrics.exit.thread55

96:                                               ; preds = %91, %95
  %97 = load ptr, ptr %9, align 8
  %98 = call i32 %.043(ptr noundef nonnull %0, ptr noundef %97, ptr noundef nonnull %27, i32 noundef %4, i32 noundef %5, i32 noundef %6) #26, !callees !123
  br label %tt_sbit_decoder_load_metrics.exit.thread55

tt_sbit_decoder_load_metrics.exit.thread55:       ; preds = %25, %28, %tt_sbit_decoder_load_metrics.exit.thread, %95, %91, %81, %tt_sbit_decoder_load_metrics.exit, %96
  %.1 = phi i32 [ %56, %tt_sbit_decoder_load_metrics.exit ], [ 0, %95 ], [ %98, %96 ], [ %92, %91 ], [ 0, %81 ], [ 8, %tt_sbit_decoder_load_metrics.exit.thread ], [ 6, %28 ], [ 8, %25 ]
  call void @FT_Stream_ReleaseFrame(ptr noundef %12, ptr noundef nonnull %10) #26
  br label %99

99:                                               ; preds = %8, %13, %18, %23, %tt_sbit_decoder_load_metrics.exit.thread55
  %.2 = phi i32 [ %22, %18 ], [ %24, %23 ], [ %.1, %tt_sbit_decoder_load_metrics.exit.thread55 ], [ 6, %13 ], [ 6, %8 ]
  ret i32 %.2
}